; Function Attrs: mustprogress nounwind uwtable
define hidden void @_ZNK5clang7targets19AArch64beTargetInfo16getTargetDefinesERKNS_11LangOptionsERNS_12MacroBuilderE(ptr noundef nonnull align 8 dereferenceable(600) %0, ptr noundef nonnull readonly align 8 captures(none) dereferenceable(841) %1, ptr noundef nonnull align 8 dereferenceable(8) %2) unnamed_addr #1 align 2 {
  %4 = alloca %"class.llvm::Twine", align 8
  %5 = alloca %"class.llvm::Twine", align 8
  %6 = alloca %"class.llvm::Twine", align 8
  %7 = alloca %"class.llvm::Twine", align 8
  %8 = alloca %"class.llvm::Twine", align 8
  %9 = alloca %"class.llvm::Twine", align 8
  %10 = getelementptr inbounds nuw i8, ptr %4, i64 32
  %11 = getelementptr inbounds nuw i8, ptr %4, i64 33
  store i8 1, ptr %11, align 1
  store ptr @.str.543, ptr %4, align 8
  store i8 3, ptr %10, align 8
  %12 = getelementptr inbounds nuw i8, ptr %5, i64 32
  %13 = getelementptr inbounds nuw i8, ptr %5, i64 33
  store i8 1, ptr %13, align 1
  store ptr @.str.14, ptr %5, align 8
  store i8 3, ptr %12, align 8
  call void @_ZN5clang12MacroBuilder11defineMacroERKN4llvm5TwineES4_(ptr noundef nonnull align 8 dereferenceable(8) %2, ptr noundef nonnull align 8 dereferenceable(34) %4, ptr noundef nonnull align 8 dereferenceable(34) %5)
  %14 = getelementptr inbounds nuw i8, ptr %6, i64 32
  %15 = getelementptr inbounds nuw i8, ptr %6, i64 33
  store i8 1, ptr %15, align 1
  store ptr @.str.544, ptr %6, align 8
  store i8 3, ptr %14, align 8
  %16 = getelementptr inbounds nuw i8, ptr %7, i64 32
  %17 = getelementptr inbounds nuw i8, ptr %7, i64 33
  store i8 1, ptr %17, align 1
  store ptr @.str.14, ptr %7, align 8
  store i8 3, ptr %16, align 8
  call void @_ZN5clang12MacroBuilder11defineMacroERKN4llvm5TwineES4_(ptr noundef nonnull align 8 dereferenceable(8) %2, ptr noundef nonnull align 8 dereferenceable(34) %6, ptr noundef nonnull align 8 dereferenceable(34) %7)
  %18 = getelementptr inbounds nuw i8, ptr %8, i64 32
  %19 = getelementptr inbounds nuw i8, ptr %8, i64 33
  store i8 1, ptr %19, align 1
  store ptr @.str.545, ptr %8, align 8
  store i8 3, ptr %18, align 8
  %20 = getelementptr inbounds nuw i8, ptr %9, i64 32
  %21 = getelementptr inbounds nuw i8, ptr %9, i64 33
  store i8 1, ptr %21, align 1
  store ptr @.str.14, ptr %9, align 8
  store i8 3, ptr %20, align 8
  call void @_ZN5clang12MacroBuilder11defineMacroERKN4llvm5TwineES4_(ptr noundef nonnull align 8 dereferenceable(8) %2, ptr noundef nonnull align 8 dereferenceable(34) %8, ptr noundef nonnull align 8 dereferenceable(34) %9)
  call void @_ZNK5clang7targets17AArch64TargetInfo16getTargetDefinesERKNS_11LangOptionsERNS_12MacroBuilderE(ptr noundef nonnull align 8 dereferenceable(600) %0, ptr noundef nonnull align 8 dereferenceable(841) %1, ptr noundef nonnull align 8 dereferenceable(8) %2)
  ret void
}